target datalayout = "e-m:e-p270:32:32-p271:32:32-p272:64:64-i64:64-i128:128-f80:128-n8:16:32:64-S128"
target triple = "x86_64-pc-linux-gnu"

%struct._spdu_lin_mapping = type { i32, i32, i32 }
%struct._GList = type { ptr, ptr, ptr }

@spdu_lin_mapping = internal global ptr null, align 8
@spdu_lin_mapping_num = internal global i32 0, align 4
@signal_pdu_handle_lin = internal global ptr null, align 8
@data_spdu_lin_mappings = internal global ptr null, align 8
@.str.301 = private unnamed_addr constant [13 x i8] c"lin.frame_id\00", align 1

; Function Attrs: null_pointer_is_valid sspstrong uwtable
define internal void @register_signal_pdu_lin() #0 {
  %1 = alloca ptr, align 8
  %2 = alloca ptr, align 8
  %3 = load ptr, ptr @signal_pdu_handle_lin, align 8
  %4 = icmp eq ptr %3, null
  br i1 %4, label %5, label %6

5:                                                ; preds = %0
  br label %30

6:                                                ; preds = %0
  %7 = load ptr, ptr @signal_pdu_handle_lin, align 8
  call void @dissector_delete_all(ptr noundef @.str.301, ptr noundef %7)
  %8 = load ptr, ptr @data_spdu_lin_mappings, align 8
  %9 = icmp ne ptr %8, null
  br i1 %9, label %10, label %30

10:                                               ; preds = %6
  call void @llvm.lifetime.start.p0(i64 8, ptr %1) #14
  %11 = load ptr, ptr @data_spdu_lin_mappings, align 8
  %12 = call ptr @g_hash_table_get_keys(ptr noundef %11)
  store ptr %12, ptr %1, align 8
  call void @llvm.lifetime.start.p0(i64 8, ptr %2) #14
  %13 = load ptr, ptr %1, align 8
  store ptr %13, ptr %2, align 8
  br label %14

14:                                               ; preds = %24, %10
  %15 = load ptr, ptr %2, align 8
  %16 = icmp ne ptr %15, null
  br i1 %16, label %17, label %28

17:                                               ; preds = %14
  %18 = load ptr, ptr %2, align 8
  %19 = getelementptr inbounds nuw %struct._GList, ptr %18, i32 0, i32 0
  %20 = load ptr, ptr %19, align 8
  %21 = ptrtoint ptr %20 to i64
  %22 = trunc i64 %21 to i32
  %23 = load ptr, ptr @signal_pdu_handle_lin, align 8
  call void @dissector_add_uint(ptr noundef @.str.301, i32 noundef %22, ptr noundef %23)
  br label %24

24:                                               ; preds = %17
  %25 = load ptr, ptr %2, align 8
  %26 = getelementptr inbounds nuw %struct._GList, ptr %25, i32 0, i32 1
  %27 = load ptr, ptr %26, align 8
  store ptr %27, ptr %2, align 8
  br label %14, !llvm.loop !28

28:                                               ; preds = %14
  %29 = load ptr, ptr %1, align 8
  call void @g_list_free(ptr noundef %29)
  call void @llvm.lifetime.end.p0(i64 8, ptr %2) #14
  call void @llvm.lifetime.end.p0(i64 8, ptr %1) #14
  br label %30

30:                                               ; preds = %5, %28, %6
  ret void
}

; Function Attrs: null_pointer_is_valid sspstrong uwtable
define internal void @post_update_spdu_lin_mapping_cb() #0 {
  %1 = alloca i32, align 4
  %2 = alloca i32, align 4
  %3 = load ptr, ptr @data_spdu_lin_mappings, align 8
  %4 = icmp ne ptr %3, null
  br i1 %4, label %5, label %7

5:                                                ; preds = %0
  %6 = load ptr, ptr @data_spdu_lin_mappings, align 8
  call void @g_hash_table_destroy(ptr noundef %6)
  br label %7

7:                                                ; preds = %5, %0
  %8 = call ptr @g_hash_table_new_full(ptr noundef @g_direct_hash, ptr noundef @g_direct_equal, ptr noundef null, ptr noundef null)
  store ptr %8, ptr @data_spdu_lin_mappings, align 8
  call void @llvm.lifetime.start.p0(i64 4, ptr %1) #14
  store i32 0, ptr %1, align 4
  br label %9

9:                                                ; preds = %40, %7
  %10 = load i32, ptr %1, align 4
  %11 = load i32, ptr @spdu_lin_mapping_num, align 4
  %12 = icmp ult i32 %10, %11
  br i1 %12, label %14, label %13

13:                                               ; preds = %9
  call void @llvm.lifetime.end.p0(i64 4, ptr %1) #14
  br label %43

14:                                               ; preds = %9
  call void @llvm.lifetime.start.p0(i64 4, ptr %2) #14
  %15 = load ptr, ptr @spdu_lin_mapping, align 8
  %16 = load i32, ptr %1, align 4
  %17 = zext i32 %16 to i64
  %18 = getelementptr %struct._spdu_lin_mapping, ptr %15, i64 %17
  %19 = getelementptr inbounds nuw %struct._spdu_lin_mapping, ptr %18, i32 0, i32 0
  %20 = load i32, ptr %19, align 4
  %21 = and i32 %20, 63
  %22 = load ptr, ptr @spdu_lin_mapping, align 8
  %23 = load i32, ptr %1, align 4
  %24 = zext i32 %23 to i64
  %25 = getelementptr %struct._spdu_lin_mapping, ptr %22, i64 %24
  %26 = getelementptr inbounds nuw %struct._spdu_lin_mapping, ptr %25, i32 0, i32 1
  %27 = load i32, ptr %26, align 4
  %28 = and i32 %27, 65535
  %29 = shl i32 %28, 16
  %30 = or i32 %21, %29
  store i32 %30, ptr %2, align 4
  %31 = load ptr, ptr @data_spdu_lin_mappings, align 8
  %32 = load i32, ptr %2, align 4
  %33 = zext i32 %32 to i64
  %34 = inttoptr i64 %33 to ptr
  %35 = load ptr, ptr @spdu_lin_mapping, align 8
  %36 = load i32, ptr %1, align 4
  %37 = zext i32 %36 to i64
  %38 = getelementptr %struct._spdu_lin_mapping, ptr %35, i64 %37
  %39 = call i32 @g_hash_table_insert(ptr noundef %31, ptr noundef %34, ptr noundef %38)
  call void @llvm.lifetime.end.p0(i64 4, ptr %2) #14
  br label %40

40:                                               ; preds = %14
  %41 = load i32, ptr %1, align 4
  %42 = add i32 %41, 1
  store i32 %42, ptr %1, align 4
  br label %9, !llvm.loop !13

43:                                               ; preds = %13
  call void @register_signal_pdu_lin()
  ret void
}