; Function Attrs: null_pointer_is_valid sspstrong uwtable
define internal void @post_update_spdu_lin_mapping_cb() #0 {
  %1 = load ptr, ptr @data_spdu_lin_mappings, align 8
  %.not = icmp eq ptr %1, null
  br i1 %.not, label %3, label %2

2:                                                ; preds = %0
  tail call void @g_hash_table_destroy(ptr noundef nonnull %1)
  br label %3

3:                                                ; preds = %2, %0
  %4 = tail call ptr @g_hash_table_new_full(ptr noundef nonnull @g_direct_hash, ptr noundef nonnull @g_direct_equal, ptr noundef null, ptr noundef null)
  store ptr %4, ptr @data_spdu_lin_mappings, align 8
  %5 = load i32, ptr @spdu_lin_mapping_num, align 4
  %.not8 = icmp eq i32 %5, 0
  br i1 %.not8, label %._crit_edge, label %.lr.ph

._crit_edge:                                      ; preds = %.lr.ph, %3
  %6 = load ptr, ptr @signal_pdu_handle_lin, align 8
  %7 = icmp eq ptr %6, null
  br i1 %7, label %register_signal_pdu_lin.exit, label %8

8:                                                ; preds = %._crit_edge
  tail call void @dissector_delete_all(ptr noundef nonnull @.str.301, ptr noundef nonnull %6)
  %9 = load ptr, ptr @data_spdu_lin_mappings, align 8
  %.not.i = icmp eq ptr %9, null
  br i1 %.not.i, label %register_signal_pdu_lin.exit, label %10

10:                                               ; preds = %8
  %11 = tail call ptr @g_hash_table_get_keys(ptr noundef nonnull %9)
  %.not78.i = icmp eq ptr %11, null
  br i1 %.not78.i, label %._crit_edge.i, label %.lr.ph.i

.lr.ph.i:                                         ; preds = %10, %.lr.ph.i
  %.09.i = phi ptr [ %17, %.lr.ph.i ], [ %11, %10 ]
  %12 = load ptr, ptr %.09.i, align 8
  %13 = ptrtoint ptr %12 to i64
  %14 = trunc i64 %13 to i32
  %15 = load ptr, ptr @signal_pdu_handle_lin, align 8
  tail call void @dissector_add_uint(ptr noundef nonnull @.str.301, i32 noundef %14, ptr noundef %15)
  %16 = getelementptr inbounds nuw i8, ptr %.09.i, i64 8
  %17 = load ptr, ptr %16, align 8
  %.not7.i = icmp eq ptr %17, null
  br i1 %.not7.i, label %._crit_edge.i, label %.lr.ph.i, !llvm.loop !19

._crit_edge.i:                                    ; preds = %.lr.ph.i, %10
  tail call void @g_list_free(ptr noundef %11)
  br label %register_signal_pdu_lin.exit

register_signal_pdu_lin.exit:                     ; preds = %._crit_edge, %8, %._crit_edge.i
  ret void

.lr.ph:                                           ; preds = %3, %.lr.ph
  %indvars.iv = phi i64 [ %indvars.iv.next, %.lr.ph ], [ 0, %3 ]
  %18 = load ptr, ptr @spdu_lin_mapping, align 8
  %19 = getelementptr %struct._spdu_lin_mapping, ptr %18, i64 %indvars.iv
  %20 = load i32, ptr %19, align 4
  %21 = and i32 %20, 63
  %22 = getelementptr inbounds nuw i8, ptr %19, i64 4
  %23 = load i32, ptr %22, align 4
  %24 = shl i32 %23, 16
  %25 = or disjoint i32 %24, %21
  %26 = load ptr, ptr @data_spdu_lin_mappings, align 8
  %27 = zext i32 %25 to i64
  %28 = inttoptr i64 %27 to ptr
  %29 = tail call i32 @g_hash_table_insert(ptr noundef %26, ptr noundef %28, ptr noundef %19)
  %indvars.iv.next = add nuw nsw i64 %indvars.iv, 1
  %30 = load i32, ptr @spdu_lin_mapping_num, align 4
  %31 = zext i32 %30 to i64
  %32 = icmp samesign ult i64 %indvars.iv.next, %31
  br i1 %32, label %.lr.ph, label %._crit_edge, !llvm.loop !20
}